; Function Attrs: mustprogress nofree norecurse nosync nounwind willreturn memory(argmem: readwrite) uwtable
define dso_local void @_ZNK4llvm17GenericSSAContextINS_8FunctionEE5printEPKNS_10BasicBlockE(ptr dead_on_unwind noalias nocapture writable writeonly sret(%"class.llvm::Printable") align 8 %0, ptr nocapture noundef nonnull readnone align 8 dereferenceable(8) %1, ptr noundef %2) local_unnamed_addr #5 align 2 {
  %.not = icmp eq ptr %2, null
  br i1 %.not, label %_ZN4llvm9PrintableC2ESt8functionIFvRNS_11raw_ostreamEEE.exit, label %6

_ZN4llvm9PrintableC2ESt8functionIFvRNS_11raw_ostreamEEE.exit: ; preds = %3
  tail call void @llvm.memset.p0.i64(ptr noundef nonnull align 8 dereferenceable(16) %0, i8 0, i64 16, i1 false)
  %4 = getelementptr inbounds nuw i8, ptr %0, i64 24
  store ptr @"_ZNSt17_Function_handlerIFvRN4llvm11raw_ostreamEEZNKS0_17GenericSSAContextINS0_8FunctionEE5printEPKNS0_10BasicBlockEE3$_0E9_M_invokeERKSt9_Any_dataS2_", ptr %4, align 8
  %5 = getelementptr inbounds nuw i8, ptr %0, i64 16
  store ptr @"_ZNSt17_Function_handlerIFvRN4llvm11raw_ostreamEEZNKS0_17GenericSSAContextINS0_8FunctionEE5printEPKNS0_10BasicBlockEE3$_0E10_M_managerERSt9_Any_dataRKSC_St18_Manager_operation", ptr %5, align 8
  br label %_ZNSt8functionIFvRN4llvm11raw_ostreamEEED2Ev.exit

6:                                                ; preds = %3
  %7 = getelementptr inbounds nuw i8, ptr %2, i64 4
  %8 = load i32, ptr %7, align 4
  %9 = and i32 %8, 268435456
  %.not14 = icmp eq i32 %9, 0
  %10 = ptrtoint ptr %2 to i64
  %11 = getelementptr inbounds nuw i8, ptr %0, i64 24
  %12 = getelementptr inbounds nuw i8, ptr %0, i64 16
  %.sroa.3.0..sroa_idx = getelementptr inbounds i8, ptr %0, i64 8
  br i1 %.not14, label %_ZN4llvm9PrintableC2ESt8functionIFvRNS_11raw_ostreamEEE.exit10, label %_ZN4llvm9PrintableC2ESt8functionIFvRNS_11raw_ostreamEEE.exit5

_ZN4llvm9PrintableC2ESt8functionIFvRNS_11raw_ostreamEEE.exit5: ; preds = %6
  store ptr @"_ZNSt17_Function_handlerIFvRN4llvm11raw_ostreamEEZNKS0_17GenericSSAContextINS0_8FunctionEE5printEPKNS0_10BasicBlockEE3$_1E9_M_invokeERKSt9_Any_dataS2_", ptr %11, align 8
  store i64 %10, ptr %0, align 8
  store i64 0, ptr %.sroa.3.0..sroa_idx, align 8
  store ptr @"_ZNSt17_Function_handlerIFvRN4llvm11raw_ostreamEEZNKS0_17GenericSSAContextINS0_8FunctionEE5printEPKNS0_10BasicBlockEE3$_1E10_M_managerERSt9_Any_dataRKSC_St18_Manager_operation", ptr %12, align 8
  br label %_ZNSt8functionIFvRN4llvm11raw_ostreamEEED2Ev.exit

_ZN4llvm9PrintableC2ESt8functionIFvRNS_11raw_ostreamEEE.exit10: ; preds = %6
  store ptr @"_ZNSt17_Function_handlerIFvRN4llvm11raw_ostreamEEZNKS0_17GenericSSAContextINS0_8FunctionEE5printEPKNS0_10BasicBlockEE3$_2E9_M_invokeERKSt9_Any_dataS2_", ptr %11, align 8
  store i64 %10, ptr %0, align 8
  store i64 0, ptr %.sroa.3.0..sroa_idx, align 8
  store ptr @"_ZNSt17_Function_handlerIFvRN4llvm11raw_ostreamEEZNKS0_17GenericSSAContextINS0_8FunctionEE5printEPKNS0_10BasicBlockEE3$_2E10_M_managerERSt9_Any_dataRKSC_St18_Manager_operation", ptr %12, align 8
  br label %_ZNSt8functionIFvRN4llvm11raw_ostreamEEED2Ev.exit

_ZNSt8functionIFvRN4llvm11raw_ostreamEEED2Ev.exit: ; preds = %_ZN4llvm9PrintableC2ESt8functionIFvRNS_11raw_ostreamEEE.exit, %_ZN4llvm9PrintableC2ESt8functionIFvRNS_11raw_ostreamEEE.exit10, %_ZN4llvm9PrintableC2ESt8functionIFvRNS_11raw_ostreamEEE.exit5
  ret void
}